target datalayout = "e-m:e-p270:32:32-p271:32:32-p272:64:64-i64:64-i128:128-f80:128-n8:16:32:64-S128"
target triple = "x86_64-pc-linux-gnu"

%"struct.Eigen::internal::evaluator.345" = type { %"struct.Eigen::internal::evaluator.346" }
%"struct.Eigen::internal::evaluator.346" = type { %"class.Eigen::internal::plainobjectbase_evaluator_data.349" }
%"class.Eigen::internal::plainobjectbase_evaluator_data.349" = type { ptr }
%"class.Eigen::PlainObjectBase.336" = type { %"class.Eigen::DenseStorage.343" }
%"class.Eigen::DenseStorage.343" = type { %"struct.Eigen::internal::plain_array.344" }
%"struct.Eigen::internal::plain_array.344" = type { [4 x i32] }

; Function Attrs: inlinehint mustprogress nounwind ssp uwtable
define linkonce_odr void @_ZN5Eigen8internal22ignore_unused_variableIlEEvRKT_(ptr noundef nonnull align 8 dereferenceable(8) %0) #6 comdat {
  %2 = alloca ptr, align 8
  store ptr %0, ptr %2, align 8, !tbaa !126
  ret void
}

; Function Attrs: mustprogress nounwind ssp uwtable
define linkonce_odr noundef ptr @_ZNK5Eigen12DenseStorageIiLi4ELi4ELi1ELi0EE4dataEv(ptr noundef nonnull align 16 dereferenceable(16) %0) #1 comdat align 2 {
  %2 = alloca ptr, align 8
  store ptr %0, ptr %2, align 8, !tbaa !892
  %3 = load ptr, ptr %2, align 8
  %4 = getelementptr inbounds nuw %"class.Eigen::DenseStorage.343", ptr %3, i32 0, i32 0
  %5 = getelementptr inbounds nuw %"struct.Eigen::internal::plain_array.344", ptr %4, i32 0, i32 0
  %6 = getelementptr inbounds [4 x i32], ptr %5, i64 0, i64 0
  ret ptr %6
}

; Function Attrs: inlinehint mustprogress nounwind ssp uwtable
define linkonce_odr void @_ZN5Eigen8internal30plainobjectbase_evaluator_dataIiLi0EEC2EPKil(ptr noundef nonnull align 8 dereferenceable(8) %0, ptr noundef %1, i64 noundef %2) unnamed_addr #6 comdat align 2 {
  %4 = alloca ptr, align 8
  %5 = alloca ptr, align 8
  %6 = alloca i64, align 8
  store ptr %0, ptr %4, align 8, !tbaa !889
  store ptr %1, ptr %5, align 8, !tbaa !93
  store i64 %2, ptr %6, align 8, !tbaa !30
  %7 = load ptr, ptr %4, align 8
  %8 = getelementptr inbounds nuw %"class.Eigen::internal::plainobjectbase_evaluator_data.349", ptr %7, i32 0, i32 0
  %9 = load ptr, ptr %5, align 8, !tbaa !93
  store ptr %9, ptr %8, align 8, !tbaa !891
  call void @_ZN5Eigen8internal22ignore_unused_variableIlEEvRKT_(ptr noundef nonnull align 8 dereferenceable(8) %6)
  ret void
}

; Function Attrs: inlinehint mustprogress ssp uwtable
define linkonce_odr noundef ptr @_ZNK5Eigen15PlainObjectBaseINS_6MatrixIiLi4ELi1ELi0ELi4ELi1EEEE4dataEv(ptr noundef nonnull align 16 dereferenceable(16) %0) #16 comdat align 2 {
  %2 = alloca ptr, align 8
  store ptr %0, ptr %2, align 8, !tbaa !887
  %3 = load ptr, ptr %2, align 8
  %4 = getelementptr inbounds nuw %"class.Eigen::PlainObjectBase.336", ptr %3, i32 0, i32 0
  %5 = call noundef ptr @_ZNK5Eigen12DenseStorageIiLi4ELi4ELi1ELi0EE4dataEv(ptr noundef nonnull align 16 dereferenceable(16) %4)
  ret ptr %5
}

; Function Attrs: inlinehint mustprogress nounwind ssp uwtable
define linkonce_odr void @_ZN5Eigen8internal14evaluator_baseINS_6MatrixIiLi4ELi1ELi0ELi4ELi1EEEEC2Ev(ptr noundef nonnull align 1 dereferenceable(1) %0) unnamed_addr #6 comdat align 2 {
  %2 = alloca ptr, align 8
  store ptr %0, ptr %2, align 8, !tbaa !885
  ret void
}

; Function Attrs: inlinehint mustprogress ssp uwtable
define linkonce_odr void @_ZN5Eigen8internal9evaluatorINS_15PlainObjectBaseINS_6MatrixIiLi4ELi1ELi0ELi4ELi1EEEEEEC2ERKS5_(ptr noundef nonnull align 8 dereferenceable(8) %0, ptr noundef nonnull align 16 dereferenceable(16) %1) unnamed_addr #16 comdat align 2 personality ptr @__gxx_personality_v0 {
  %3 = alloca ptr, align 8
  %4 = alloca ptr, align 8
  %5 = alloca ptr, align 8
  %6 = alloca i32, align 4
  store ptr %0, ptr %3, align 8, !tbaa !880
  store ptr %1, ptr %4, align 8, !tbaa !887
  %7 = load ptr, ptr %3, align 8
  call void @_ZN5Eigen8internal14evaluator_baseINS_6MatrixIiLi4ELi1ELi0ELi4ELi1EEEEC2Ev(ptr noundef nonnull align 1 dereferenceable(1) %7)
  %8 = getelementptr inbounds nuw %"struct.Eigen::internal::evaluator.346", ptr %7, i32 0, i32 0
  %9 = load ptr, ptr %4, align 8, !tbaa !887
  %10 = invoke noundef ptr @_ZNK5Eigen15PlainObjectBaseINS_6MatrixIiLi4ELi1ELi0ELi4ELi1EEEE4dataEv(ptr noundef nonnull align 16 dereferenceable(16) %9)
          to label %11 unwind label %13

11:                                               ; preds = %2
  invoke void @_ZN5Eigen8internal30plainobjectbase_evaluator_dataIiLi0EEC2EPKil(ptr noundef nonnull align 8 dereferenceable(8) %8, ptr noundef %10, i64 noundef 0)
          to label %12 unwind label %13

12:                                               ; preds = %11
  ret void

13:                                               ; preds = %11, %2
  %14 = landingpad { ptr, i32 }
          cleanup
  %15 = extractvalue { ptr, i32 } %14, 0
  store ptr %15, ptr %5, align 8
  %16 = extractvalue { ptr, i32 } %14, 1
  store i32 %16, ptr %6, align 4
  call void @_ZN5Eigen8internal14evaluator_baseINS_6MatrixIiLi4ELi1ELi0ELi4ELi1EEEED2Ev(ptr noundef nonnull align 1 dereferenceable(1) %7) #7
  br label %17

17:                                               ; preds = %13
  %18 = load ptr, ptr %5, align 8
  %19 = load i32, ptr %6, align 4
  %20 = insertvalue { ptr, i32 } poison, ptr %18, 0
  %21 = insertvalue { ptr, i32 } %20, i32 %19, 1
  resume { ptr, i32 } %21
}

; Function Attrs: inlinehint mustprogress nounwind ssp uwtable
define linkonce_odr void @_ZN5Eigen8internal14evaluator_baseINS_6MatrixIiLi4ELi1ELi0ELi4ELi1EEEED2Ev(ptr noundef nonnull align 1 dereferenceable(1) %0) unnamed_addr #6 comdat align 2 {
  %2 = alloca ptr, align 8
  store ptr %0, ptr %2, align 8, !tbaa !885
  ret void
}

; Function Attrs: inlinehint mustprogress nounwind ssp uwtable
define linkonce_odr noundef nonnull align 4 dereferenceable(4) ptr @_ZNK5Eigen8internal9evaluatorINS_15PlainObjectBaseINS_6MatrixIiLi4ELi1ELi0ELi4ELi1EEEEEE5coeffEl(ptr noundef nonnull align 8 dereferenceable(8) %0, i64 noundef %1) #6 comdat align 2 {
  %3 = alloca ptr, align 8
  %4 = alloca i64, align 8
  store ptr %0, ptr %3, align 8, !tbaa !880
  store i64 %1, ptr %4, align 8, !tbaa !30
  %5 = load ptr, ptr %3, align 8
  %6 = getelementptr inbounds nuw %"struct.Eigen::internal::evaluator.346", ptr %5, i32 0, i32 0
  %7 = getelementptr inbounds nuw %"class.Eigen::internal::plainobjectbase_evaluator_data.349", ptr %6, i32 0, i32 0
  %8 = load ptr, ptr %7, align 8, !tbaa !882
  %9 = load i64, ptr %4, align 8, !tbaa !30
  %10 = getelementptr inbounds i32, ptr %8, i64 %9
  ret ptr %10
}

; Function Attrs: inlinehint mustprogress ssp uwtable
define linkonce_odr void @_ZN5Eigen8internal9evaluatorINS_6MatrixIiLi4ELi1ELi0ELi4ELi1EEEEC2ERKS3_(ptr noundef nonnull align 8 dereferenceable(8) %0, ptr noundef nonnull align 16 dereferenceable(16) %1) unnamed_addr #16 comdat align 2 {
  %3 = alloca ptr, align 8
  %4 = alloca ptr, align 8
  store ptr %0, ptr %3, align 8, !tbaa !878
  store ptr %1, ptr %4, align 8, !tbaa !872
  %5 = load ptr, ptr %3, align 8
  %6 = load ptr, ptr %4, align 8, !tbaa !872
  call void @_ZN5Eigen8internal9evaluatorINS_15PlainObjectBaseINS_6MatrixIiLi4ELi1ELi0ELi4ELi1EEEEEEC2ERKS5_(ptr noundef nonnull align 8 dereferenceable(8) %5, ptr noundef nonnull align 16 dereferenceable(16) %6)
  ret void
}

; Function Attrs: mustprogress nounwind ssp uwtable
define linkonce_odr noundef nonnull align 16 dereferenceable(16) ptr @_ZNK5Eigen9EigenBaseINS_6MatrixIiLi4ELi1ELi0ELi4ELi1EEEE7derivedEv(ptr noundef nonnull align 1 dereferenceable(1) %0) #1 comdat align 2 {
  %2 = alloca ptr, align 8
  store ptr %0, ptr %2, align 8, !tbaa !876
  %3 = load ptr, ptr %2, align 8
  ret ptr %3
}

; Function Attrs: inlinehint mustprogress ssp uwtable
define linkonce_odr noundef nonnull align 4 dereferenceable(4) ptr @_ZNK5Eigen15DenseCoeffsBaseINS_6MatrixIiLi4ELi1ELi0ELi4ELi1EEELi0EE5coeffEl(ptr noundef nonnull align 1 dereferenceable(1) %0, i64 noundef %1) #16 comdat align 2 personality ptr @__gxx_personality_v0 {
  %3 = alloca ptr, align 8
  %4 = alloca i64, align 8
  %5 = alloca %"struct.Eigen::internal::evaluator.345", align 8
  %6 = alloca ptr, align 8
  %7 = alloca i32, align 4
  store ptr %0, ptr %3, align 8, !tbaa !874
  store i64 %1, ptr %4, align 8, !tbaa !30
  %8 = load ptr, ptr %3, align 8
  call void @llvm.lifetime.start.p0(i64 8, ptr %5) #7
  %9 = call noundef nonnull align 16 dereferenceable(16) ptr @_ZNK5Eigen9EigenBaseINS_6MatrixIiLi4ELi1ELi0ELi4ELi1EEEE7derivedEv(ptr noundef nonnull align 1 dereferenceable(1) %8)
  call void @_ZN5Eigen8internal9evaluatorINS_6MatrixIiLi4ELi1ELi0ELi4ELi1EEEEC2ERKS3_(ptr noundef nonnull align 8 dereferenceable(8) %5, ptr noundef nonnull align 16 dereferenceable(16) %9)
  %10 = load i64, ptr %4, align 8, !tbaa !30
  %11 = invoke noundef nonnull align 4 dereferenceable(4) ptr @_ZNK5Eigen8internal9evaluatorINS_15PlainObjectBaseINS_6MatrixIiLi4ELi1ELi0ELi4ELi1EEEEEE5coeffEl(ptr noundef nonnull align 8 dereferenceable(8) %5, i64 noundef %10)
          to label %12 unwind label %13

12:                                               ; preds = %2
  call void @_ZN5Eigen8internal14evaluator_baseINS_6MatrixIiLi4ELi1ELi0ELi4ELi1EEEED2Ev(ptr noundef nonnull align 8 dereferenceable(8) %5) #7
  call void @llvm.lifetime.end.p0(i64 8, ptr %5) #7
  ret ptr %11

13:                                               ; preds = %2
  %14 = landingpad { ptr, i32 }
          cleanup
  %15 = extractvalue { ptr, i32 } %14, 0
  store ptr %15, ptr %6, align 8
  %16 = extractvalue { ptr, i32 } %14, 1
  store i32 %16, ptr %7, align 4
  call void @_ZN5Eigen8internal14evaluator_baseINS_6MatrixIiLi4ELi1ELi0ELi4ELi1EEEED2Ev(ptr noundef nonnull align 8 dereferenceable(8) %5) #7
  call void @llvm.lifetime.end.p0(i64 8, ptr %5) #7
  br label %17

17:                                               ; preds = %13
  %18 = load ptr, ptr %6, align 8
  %19 = load i32, ptr %7, align 4
  %20 = insertvalue { ptr, i32 } poison, ptr %18, 0
  %21 = insertvalue { ptr, i32 } %20, i32 %19, 1
  resume { ptr, i32 } %21
}

; Function Attrs: inlinehint mustprogress ssp uwtable
define linkonce_odr noundef nonnull align 4 dereferenceable(4) ptr @_ZNK5Eigen15DenseCoeffsBaseINS_6MatrixIiLi4ELi1ELi0ELi4ELi1EEELi0EEclEl(ptr noundef nonnull align 1 dereferenceable(1) %0, i64 noundef %1) #16 comdat align 2 {
  %3 = alloca ptr, align 8
  %4 = alloca i64, align 8
  store ptr %0, ptr %3, align 8, !tbaa !874
  store i64 %1, ptr %4, align 8, !tbaa !30
  %5 = load ptr, ptr %3, align 8
  %6 = load i64, ptr %4, align 8, !tbaa !30
  %7 = call noundef nonnull align 4 dereferenceable(4) ptr @_ZNK5Eigen15DenseCoeffsBaseINS_6MatrixIiLi4ELi1ELi0ELi4ELi1EEELi0EE5coeffEl(ptr noundef nonnull align 1 dereferenceable(1) %5, i64 noundef %6)
  ret ptr %7
}

; Function Attrs: mustprogress ssp uwtable
define noundef i32 @_ZN6open3d13visualization7gl_util20ColorCodeToPickIndexERKN5Eigen6MatrixIiLi4ELi1ELi0ELi4ELi1EEE(ptr noundef nonnull align 16 dereferenceable(16) %0) #3 {
  %2 = alloca i32, align 4
  %3 = alloca ptr, align 8
  store ptr %0, ptr %3, align 8, !tbaa !872
  %4 = load ptr, ptr %3, align 8, !tbaa !872
  %5 = call noundef nonnull align 4 dereferenceable(4) ptr @_ZNK5Eigen15DenseCoeffsBaseINS_6MatrixIiLi4ELi1ELi0ELi4ELi1EEELi0EEclEl(ptr noundef nonnull align 1 dereferenceable(1) %4, i64 noundef 0)
  %6 = load i32, ptr %5, align 4, !tbaa !121
  %7 = icmp eq i32 %6, 255
  br i1 %7, label %8, label %9

8:                                                ; preds = %1
  store i32 -1, ptr %2, align 4
  br label %28

9:                                                ; preds = %1
  %10 = load ptr, ptr %3, align 8, !tbaa !872
  %11 = call noundef nonnull align 4 dereferenceable(4) ptr @_ZNK5Eigen15DenseCoeffsBaseINS_6MatrixIiLi4ELi1ELi0ELi4ELi1EEELi0EEclEl(ptr noundef nonnull align 1 dereferenceable(1) %10, i64 noundef 0)
  %12 = load i32, ptr %11, align 4, !tbaa !121
  %13 = mul nsw i32 %12, 256
  %14 = load ptr, ptr %3, align 8, !tbaa !872
  %15 = call noundef nonnull align 4 dereferenceable(4) ptr @_ZNK5Eigen15DenseCoeffsBaseINS_6MatrixIiLi4ELi1ELi0ELi4ELi1EEELi0EEclEl(ptr noundef nonnull align 1 dereferenceable(1) %14, i64 noundef 1)
  %16 = load i32, ptr %15, align 4, !tbaa !121
  %17 = add nsw i32 %13, %16
  %18 = mul nsw i32 %17, 256
  %19 = load ptr, ptr %3, align 8, !tbaa !872
  %20 = call noundef nonnull align 4 dereferenceable(4) ptr @_ZNK5Eigen15DenseCoeffsBaseINS_6MatrixIiLi4ELi1ELi0ELi4ELi1EEELi0EEclEl(ptr noundef nonnull align 1 dereferenceable(1) %19, i64 noundef 2)
  %21 = load i32, ptr %20, align 4, !tbaa !121
  %22 = add nsw i32 %18, %21
  %23 = mul nsw i32 %22, 256
  %24 = load ptr, ptr %3, align 8, !tbaa !872
  %25 = call noundef nonnull align 4 dereferenceable(4) ptr @_ZNK5Eigen15DenseCoeffsBaseINS_6MatrixIiLi4ELi1ELi0ELi4ELi1EEELi0EEclEl(ptr noundef nonnull align 1 dereferenceable(1) %24, i64 noundef 3)
  %26 = load i32, ptr %25, align 4, !tbaa !121
  %27 = add nsw i32 %23, %26
  store i32 %27, ptr %2, align 4
  br label %28

28:                                               ; preds = %9, %8
  %29 = load i32, ptr %2, align 4
  ret i32 %29
}