; Function Attrs: mustprogress nofree norecurse nosync nounwind ssp willreturn memory(argmem: read) uwtable
define noundef i32 @_ZN6open3d13visualization7gl_util20ColorCodeToPickIndexERKN5Eigen6MatrixIiLi4ELi1ELi0ELi4ELi1EEE(ptr noundef nonnull readonly align 16 captures(none) dereferenceable(16) %0) local_unnamed_addr #19 personality ptr @__gxx_personality_v0 {
  %2 = load i32, ptr %0, align 16, !tbaa !28
  %3 = icmp eq i32 %2, 255
  br i1 %3, label %17, label %4

4:                                                ; preds = %1
  %5 = getelementptr inbounds nuw i8, ptr %0, i64 4
  %6 = load i32, ptr %5, align 4, !tbaa !28
  %7 = shl i32 %2, 16
  %8 = shl i32 %6, 8
  %9 = add i32 %8, %7
  %10 = getelementptr inbounds nuw i8, ptr %0, i64 8
  %11 = load i32, ptr %10, align 8, !tbaa !28
  %12 = add nsw i32 %9, %11
  %13 = shl nsw i32 %12, 8
  %14 = getelementptr inbounds nuw i8, ptr %0, i64 12
  %15 = load i32, ptr %14, align 4, !tbaa !28
  %16 = add nsw i32 %13, %15
  br label %17

17:                                               ; preds = %1, %4
  %.0 = phi i32 [ %16, %4 ], [ -1, %1 ]
  ret i32 %.0
}